; Function Attrs: mustprogress nounwind uwtable
define hidden noundef zeroext i1 @_ZNK24ShenandoahMarkingContext15is_bitmap_clearEv(ptr noundef nonnull align 8 dereferenceable(208) %0) local_unnamed_addr #0 align 2 {
  %2 = load ptr, ptr @_ZN8Universe14_collectedHeapE, align 8
  %3 = getelementptr inbounds i8, ptr %2, i64 544
  %4 = load i64, ptr %3, align 8
  %5 = icmp eq i64 %4, 0
  br i1 %5, label %._crit_edge, label %.lr.ph

.lr.ph:                                           ; preds = %1
  %6 = getelementptr inbounds i8, ptr %2, i64 552
  br label %7

7:                                                ; preds = %.lr.ph, %23
  %8 = phi i1 [ false, %.lr.ph ], [ %25, %23 ]
  %.01112 = phi i64 [ 0, %.lr.ph ], [ %24, %23 ]
  %9 = load i64, ptr %3, align 8
  %10 = icmp ugt i64 %9, %.01112
  br i1 %10, label %11, label %_ZNK14ShenandoahHeap10get_regionEm.exit

11:                                               ; preds = %7
  %12 = load ptr, ptr %6, align 8
  %13 = getelementptr inbounds ptr, ptr %12, i64 %.01112
  %14 = load ptr, ptr %13, align 8
  br label %_ZNK14ShenandoahHeap10get_regionEm.exit

_ZNK14ShenandoahHeap10get_regionEm.exit:          ; preds = %7, %11
  %.0.i = phi ptr [ %14, %11 ], [ null, %7 ]
  %15 = tail call noundef zeroext i1 @_ZN14ShenandoahHeap25is_bitmap_slice_committedEP20ShenandoahHeapRegionb(ptr noundef nonnull align 8 dereferenceable(2657) %2, ptr noundef %.0.i, i1 noundef zeroext false) #5
  br i1 %15, label %16, label %23

16:                                               ; preds = %_ZNK14ShenandoahHeap10get_regionEm.exit
  %17 = getelementptr inbounds i8, ptr %.0.i, i64 8
  %18 = load ptr, ptr %17, align 8
  %19 = getelementptr inbounds i8, ptr %.0.i, i64 16
  %20 = load ptr, ptr %19, align 8
  %21 = tail call noundef ptr @_ZNK20ShenandoahMarkBitMap20get_next_marked_addrEPKP12HeapWordImplS3_(ptr noundef nonnull align 8 dereferenceable(40) %0, ptr noundef %18, ptr noundef %20) #5
  %22 = icmp eq ptr %21, %20
  br i1 %22, label %23, label %._crit_edge

23:                                               ; preds = %_ZNK14ShenandoahHeap10get_regionEm.exit, %16
  %24 = add nuw i64 %.01112, 1
  %25 = icmp uge i64 %24, %4
  %exitcond = icmp eq i64 %24, %4
  br i1 %exitcond, label %._crit_edge, label %7, !llvm.loop !12

._crit_edge:                                      ; preds = %16, %23, %1
  %.lcssa = phi i1 [ true, %1 ], [ %25, %23 ], [ %8, %16 ]
  ret i1 %.lcssa
}